; Function Attrs: mustprogress nounwind uwtable
define hidden noundef ptr @_ZN25HotSpotCompiledCodeStream11read_methodEPKc(ptr nocapture noundef nonnull align 8 dereferenceable(64) %0, ptr noundef %1) local_unnamed_addr #2 align 2 {
  %3 = getelementptr inbounds i8, ptr %0, i64 24
  %4 = load i8, ptr %3, align 8
  %5 = trunc i8 %4 to i1
  br i1 %5, label %6, label %7

6:                                                ; preds = %2
  tail call void @_ZN25HotSpotCompiledCodeStream10check_dataEtPKc(ptr noundef nonnull align 8 dereferenceable(64) %0, i16 noundef zeroext 8, ptr noundef %1)
  br label %7

7:                                                ; preds = %6, %2
  %8 = getelementptr inbounds i8, ptr %0, i64 16
  %9 = load ptr, ptr %8, align 8
  %10 = getelementptr inbounds i8, ptr %9, i64 8
  %11 = getelementptr inbounds i8, ptr %0, i64 8
  %12 = load ptr, ptr %11, align 8
  %13 = getelementptr inbounds i8, ptr %12, i64 12
  %14 = getelementptr inbounds i8, ptr %12, i64 8
  %15 = load i32, ptr %14, align 8
  %16 = zext i32 %15 to i64
  %17 = getelementptr inbounds i8, ptr %13, i64 %16
  %18 = icmp ugt ptr %10, %17
  br i1 %18, label %19, label %_ZN25HotSpotCompiledCodeStream7read_u8EPKc.exit

19:                                               ; preds = %7
  %20 = load ptr, ptr %12, align 8
  %21 = icmp eq ptr %20, null
  br i1 %21, label %26, label %22

22:                                               ; preds = %19
  %23 = getelementptr inbounds i8, ptr %20, i64 8
  %24 = load i32, ptr %23, align 8
  %25 = icmp ult i32 %24, 8
  br i1 %25, label %26, label %33

26:                                               ; preds = %22, %19
  %27 = load ptr, ptr @tty, align 8
  tail call void @_ZNK25HotSpotCompiledCodeStream11dump_bufferEP12outputStream(ptr noundef nonnull align 8 dereferenceable(64) %0, ptr noundef %27)
  %28 = load ptr, ptr @g_assert_poison, align 8
  store i8 88, ptr %28, align 1
  %29 = getelementptr inbounds i8, ptr %0, i64 56
  %30 = load ptr, ptr %29, align 8
  %31 = load ptr, ptr %8, align 8
  %32 = ptrtoint ptr %31 to i64
  tail call void (i32, ptr, i32, ptr, ...) @_Z12report_fatal11VMErrorTypePKciS1_z(i32 noundef -536870912, ptr noundef nonnull @.str, i32 noundef 139, ptr noundef nonnull @.str.17, ptr noundef %30, i32 noundef 8, i64 noundef %32) #11
  unreachable

33:                                               ; preds = %22
  store ptr %20, ptr %11, align 8
  %34 = getelementptr inbounds i8, ptr %20, i64 12
  store ptr %34, ptr %8, align 8
  br label %_ZN25HotSpotCompiledCodeStream7read_u8EPKc.exit

_ZN25HotSpotCompiledCodeStream7read_u8EPKc.exit:  ; preds = %7, %33
  %35 = phi ptr [ %9, %7 ], [ %34, %33 ]
  %36 = load i64, ptr %35, align 8
  %37 = getelementptr inbounds i8, ptr %35, i64 8
  store ptr %37, ptr %8, align 8
  %38 = inttoptr i64 %36 to ptr
  ret ptr %38
}